target datalayout = "e-m:e-p270:32:32-p271:32:32-p272:64:64-i64:64-i128:128-f80:128-n8:16:32:64-S128"
target triple = "x86_64-pc-linux-gnu"

%struct.mbedtls_pkcs7 = type { %struct.mbedtls_asn1_buf, %struct.mbedtls_pkcs7_signed_data }
%struct.mbedtls_asn1_buf = type { i32, i64, ptr }
%struct.mbedtls_pkcs7_signed_data = type { i32, %struct.mbedtls_asn1_buf, i32, %struct.mbedtls_x509_crt, i32, %struct.mbedtls_x509_crl, i32, %struct.mbedtls_pkcs7_signer_info }
%struct.mbedtls_x509_crt = type { i32, %struct.mbedtls_asn1_buf, %struct.mbedtls_asn1_buf, i32, %struct.mbedtls_asn1_buf, %struct.mbedtls_asn1_buf, %struct.mbedtls_asn1_buf, %struct.mbedtls_asn1_buf, %struct.mbedtls_asn1_named_data, %struct.mbedtls_asn1_named_data, %struct.mbedtls_x509_time, %struct.mbedtls_x509_time, %struct.mbedtls_asn1_buf, %struct.mbedtls_pk_context, %struct.mbedtls_asn1_buf, %struct.mbedtls_asn1_buf, %struct.mbedtls_asn1_buf, %struct.mbedtls_asn1_sequence, %struct.mbedtls_asn1_buf, %struct.mbedtls_x509_authority, %struct.mbedtls_asn1_sequence, i32, i32, i32, i32, %struct.mbedtls_asn1_sequence, i8, %struct.mbedtls_asn1_buf, i32, i32, ptr, ptr }
%struct.mbedtls_asn1_named_data = type { %struct.mbedtls_asn1_buf, %struct.mbedtls_asn1_buf, ptr, i8 }
%struct.mbedtls_x509_time = type { i32, i32, i32, i32, i32, i32 }
%struct.mbedtls_pk_context = type { ptr, ptr }
%struct.mbedtls_x509_authority = type { %struct.mbedtls_asn1_buf, %struct.mbedtls_asn1_sequence, %struct.mbedtls_asn1_buf, %struct.mbedtls_asn1_buf }
%struct.mbedtls_asn1_sequence = type { %struct.mbedtls_asn1_buf, ptr }
%struct.mbedtls_x509_crl = type { %struct.mbedtls_asn1_buf, %struct.mbedtls_asn1_buf, i32, %struct.mbedtls_asn1_buf, %struct.mbedtls_asn1_buf, %struct.mbedtls_asn1_named_data, %struct.mbedtls_x509_time, %struct.mbedtls_x509_time, %struct.mbedtls_x509_crl_entry, %struct.mbedtls_asn1_buf, %struct.mbedtls_asn1_buf, %struct.mbedtls_asn1_buf, i32, i32, ptr, ptr }
%struct.mbedtls_x509_crl_entry = type { %struct.mbedtls_asn1_buf, %struct.mbedtls_asn1_buf, %struct.mbedtls_x509_time, %struct.mbedtls_asn1_buf, ptr }
%struct.mbedtls_pkcs7_signer_info = type { i32, %struct.mbedtls_asn1_buf, %struct.mbedtls_asn1_named_data, %struct.mbedtls_asn1_buf, %struct.mbedtls_asn1_buf, %struct.mbedtls_asn1_buf, %struct.mbedtls_asn1_buf, ptr }

; Function Attrs: nounwind uwtable
define internal void @pkcs7_free_signer_info(ptr noundef %0) #0 {
  %2 = alloca ptr, align 8
  %3 = alloca ptr, align 8
  %4 = alloca ptr, align 8
  %5 = alloca i32, align 4
  store ptr %0, ptr %2, align 8, !tbaa !48
  call void @llvm.lifetime.start.p0(i64 8, ptr %3) #9
  call void @llvm.lifetime.start.p0(i64 8, ptr %4) #9
  %6 = load ptr, ptr %2, align 8, !tbaa !48
  %7 = icmp eq ptr %6, null
  br i1 %7, label %8, label %9

8:                                                ; preds = %1
  store i32 1, ptr %5, align 4
  br label %27

9:                                                ; preds = %1
  %10 = load ptr, ptr %2, align 8, !tbaa !48
  %11 = getelementptr inbounds nuw %struct.mbedtls_pkcs7_signer_info, ptr %10, i32 0, i32 2
  %12 = getelementptr inbounds nuw %struct.mbedtls_asn1_named_data, ptr %11, i32 0, i32 2
  %13 = load ptr, ptr %12, align 8, !tbaa !62
  store ptr %13, ptr %3, align 8, !tbaa !63
  br label %14

14:                                               ; preds = %17, %9
  %15 = load ptr, ptr %3, align 8, !tbaa !63
  %16 = icmp ne ptr %15, null
  br i1 %16, label %17, label %23

17:                                               ; preds = %14
  %18 = load ptr, ptr %3, align 8, !tbaa !63
  store ptr %18, ptr %4, align 8, !tbaa !63
  %19 = load ptr, ptr %3, align 8, !tbaa !63
  %20 = getelementptr inbounds nuw %struct.mbedtls_asn1_named_data, ptr %19, i32 0, i32 2
  %21 = load ptr, ptr %20, align 8, !tbaa !64
  store ptr %21, ptr %3, align 8, !tbaa !63
  %22 = load ptr, ptr %4, align 8, !tbaa !63
  call void @free(ptr noundef %22) #9
  br label %14, !llvm.loop !65

23:                                               ; preds = %14
  %24 = load ptr, ptr %2, align 8, !tbaa !48
  %25 = getelementptr inbounds nuw %struct.mbedtls_pkcs7_signer_info, ptr %24, i32 0, i32 2
  %26 = getelementptr inbounds nuw %struct.mbedtls_asn1_named_data, ptr %25, i32 0, i32 2
  store ptr null, ptr %26, align 8, !tbaa !62
  store i32 0, ptr %5, align 4
  br label %27

27:                                               ; preds = %23, %8
  call void @llvm.lifetime.end.p0(i64 8, ptr %4) #9
  call void @llvm.lifetime.end.p0(i64 8, ptr %3) #9
  %28 = load i32, ptr %5, align 4
  switch i32 %28, label %30 [
    i32 0, label %29
    i32 1, label %29
  ]

29:                                               ; preds = %27, %27
  ret void

30:                                               ; preds = %27
  unreachable
}

; Function Attrs: nounwind uwtable
define hidden void @mbedtls_pkcs7_free(ptr noundef %0) #0 {
  %2 = alloca ptr, align 8
  %3 = alloca ptr, align 8
  %4 = alloca ptr, align 8
  %5 = alloca i32, align 4
  store ptr %0, ptr %2, align 8, !tbaa !3
  call void @llvm.lifetime.start.p0(i64 8, ptr %3) #9
  call void @llvm.lifetime.start.p0(i64 8, ptr %4) #9
  %6 = load ptr, ptr %2, align 8, !tbaa !3
  %7 = icmp eq ptr %6, null
  br i1 %7, label %14, label %8

8:                                                ; preds = %1
  %9 = load ptr, ptr %2, align 8, !tbaa !3
  %10 = getelementptr inbounds nuw %struct.mbedtls_pkcs7, ptr %9, i32 0, i32 0
  %11 = getelementptr inbounds nuw %struct.mbedtls_asn1_buf, ptr %10, i32 0, i32 2
  %12 = load ptr, ptr %11, align 8, !tbaa !14
  %13 = icmp eq ptr %12, null
  br i1 %13, label %14, label %15

14:                                               ; preds = %8, %1
  store i32 1, ptr %5, align 4
  br label %48

15:                                               ; preds = %8
  %16 = load ptr, ptr %2, align 8, !tbaa !3
  %17 = getelementptr inbounds nuw %struct.mbedtls_pkcs7, ptr %16, i32 0, i32 0
  %18 = getelementptr inbounds nuw %struct.mbedtls_asn1_buf, ptr %17, i32 0, i32 2
  %19 = load ptr, ptr %18, align 8, !tbaa !14
  call void @free(ptr noundef %19) #9
  %20 = load ptr, ptr %2, align 8, !tbaa !3
  %21 = getelementptr inbounds nuw %struct.mbedtls_pkcs7, ptr %20, i32 0, i32 1
  %22 = getelementptr inbounds nuw %struct.mbedtls_pkcs7_signed_data, ptr %21, i32 0, i32 3
  call void @mbedtls_x509_crt_free(ptr noundef %22)
  %23 = load ptr, ptr %2, align 8, !tbaa !3
  %24 = getelementptr inbounds nuw %struct.mbedtls_pkcs7, ptr %23, i32 0, i32 1
  %25 = getelementptr inbounds nuw %struct.mbedtls_pkcs7_signed_data, ptr %24, i32 0, i32 5
  call void @mbedtls_x509_crl_free(ptr noundef %25)
  %26 = load ptr, ptr %2, align 8, !tbaa !3
  %27 = getelementptr inbounds nuw %struct.mbedtls_pkcs7, ptr %26, i32 0, i32 1
  %28 = getelementptr inbounds nuw %struct.mbedtls_pkcs7_signed_data, ptr %27, i32 0, i32 7
  %29 = getelementptr inbounds nuw %struct.mbedtls_pkcs7_signer_info, ptr %28, i32 0, i32 7
  %30 = load ptr, ptr %29, align 8, !tbaa !47
  store ptr %30, ptr %3, align 8, !tbaa !48
  %31 = load ptr, ptr %2, align 8, !tbaa !3
  %32 = getelementptr inbounds nuw %struct.mbedtls_pkcs7, ptr %31, i32 0, i32 1
  %33 = getelementptr inbounds nuw %struct.mbedtls_pkcs7_signed_data, ptr %32, i32 0, i32 7
  call void @pkcs7_free_signer_info(ptr noundef %33)
  br label %34

34:                                               ; preds = %37, %15
  %35 = load ptr, ptr %3, align 8, !tbaa !48
  %36 = icmp ne ptr %35, null
  br i1 %36, label %37, label %44

37:                                               ; preds = %34
  %38 = load ptr, ptr %3, align 8, !tbaa !48
  store ptr %38, ptr %4, align 8, !tbaa !48
  %39 = load ptr, ptr %4, align 8, !tbaa !48
  %40 = getelementptr inbounds nuw %struct.mbedtls_pkcs7_signer_info, ptr %39, i32 0, i32 7
  %41 = load ptr, ptr %40, align 8, !tbaa !49
  store ptr %41, ptr %3, align 8, !tbaa !48
  %42 = load ptr, ptr %4, align 8, !tbaa !48
  call void @pkcs7_free_signer_info(ptr noundef %42)
  %43 = load ptr, ptr %4, align 8, !tbaa !48
  call void @free(ptr noundef %43) #9
  br label %34, !llvm.loop !50

44:                                               ; preds = %34
  %45 = load ptr, ptr %2, align 8, !tbaa !3
  %46 = getelementptr inbounds nuw %struct.mbedtls_pkcs7, ptr %45, i32 0, i32 0
  %47 = getelementptr inbounds nuw %struct.mbedtls_asn1_buf, ptr %46, i32 0, i32 2
  store ptr null, ptr %47, align 8, !tbaa !14
  store i32 0, ptr %5, align 4
  br label %48

48:                                               ; preds = %44, %14
  call void @llvm.lifetime.end.p0(i64 8, ptr %4) #9
  call void @llvm.lifetime.end.p0(i64 8, ptr %3) #9
  %49 = load i32, ptr %5, align 4
  switch i32 %49, label %51 [
    i32 0, label %50
    i32 1, label %50
  ]

50:                                               ; preds = %48, %48
  ret void

51:                                               ; preds = %48
  unreachable
}