; Function Attrs: nounwind uwtable
define hidden void @mbedtls_pkcs7_free(ptr noundef %0) local_unnamed_addr #2 {
  %2 = icmp eq ptr %0, null
  br i1 %2, label %22, label %3

3:                                                ; preds = %1
  %4 = getelementptr inbounds nuw i8, ptr %0, i64 16
  %5 = load ptr, ptr %4, align 8, !tbaa !10
  %6 = icmp eq ptr %5, null
  br i1 %6, label %22, label %7

7:                                                ; preds = %3
  tail call void @free(ptr noundef nonnull %5) #9
  %8 = getelementptr inbounds nuw i8, ptr %0, i64 64
  tail call void @mbedtls_x509_crt_free(ptr noundef nonnull %8) #9
  %9 = getelementptr inbounds nuw i8, ptr %0, i64 816
  tail call void @mbedtls_x509_crl_free(ptr noundef nonnull %9) #9
  %10 = getelementptr inbounds nuw i8, ptr %0, i64 1432
  %11 = load ptr, ptr %10, align 8, !tbaa !38
  %12 = getelementptr inbounds nuw i8, ptr %0, i64 1320
  %13 = load ptr, ptr %12, align 8, !tbaa !39
  %.not8.i = icmp eq ptr %13, null
  br i1 %.not8.i, label %pkcs7_free_signer_info.exit, label %.lr.ph.i

.lr.ph.i:                                         ; preds = %7, %.lr.ph.i
  %.09.i = phi ptr [ %15, %.lr.ph.i ], [ %13, %7 ]
  %14 = getelementptr inbounds nuw i8, ptr %.09.i, i64 48
  %15 = load ptr, ptr %14, align 8, !tbaa !40
  tail call void @free(ptr noundef nonnull %.09.i) #9
  %.not.i = icmp eq ptr %15, null
  br i1 %.not.i, label %pkcs7_free_signer_info.exit, label %.lr.ph.i, !llvm.loop !41

pkcs7_free_signer_info.exit:                      ; preds = %.lr.ph.i, %7
  store ptr null, ptr %12, align 8, !tbaa !39
  %.not20 = icmp eq ptr %11, null
  br i1 %.not20, label %._crit_edge, label %.lr.ph

.lr.ph:                                           ; preds = %pkcs7_free_signer_info.exit, %pkcs7_free_signer_info.exit19
  %.021 = phi ptr [ %17, %pkcs7_free_signer_info.exit19 ], [ %11, %pkcs7_free_signer_info.exit ]
  %16 = getelementptr inbounds nuw i8, ptr %.021, i64 192
  %17 = load ptr, ptr %16, align 8, !tbaa !43
  %18 = getelementptr inbounds nuw i8, ptr %.021, i64 80
  %19 = load ptr, ptr %18, align 8, !tbaa !39
  %.not8.i15 = icmp eq ptr %19, null
  br i1 %.not8.i15, label %pkcs7_free_signer_info.exit19, label %.lr.ph.i16

.lr.ph.i16:                                       ; preds = %.lr.ph, %.lr.ph.i16
  %.09.i17 = phi ptr [ %21, %.lr.ph.i16 ], [ %19, %.lr.ph ]
  %20 = getelementptr inbounds nuw i8, ptr %.09.i17, i64 48
  %21 = load ptr, ptr %20, align 8, !tbaa !40
  tail call void @free(ptr noundef nonnull %.09.i17) #9
  %.not.i18 = icmp eq ptr %21, null
  br i1 %.not.i18, label %pkcs7_free_signer_info.exit19, label %.lr.ph.i16, !llvm.loop !41

pkcs7_free_signer_info.exit19:                    ; preds = %.lr.ph.i16, %.lr.ph
  tail call void @free(ptr noundef nonnull %.021) #9
  %.not = icmp eq ptr %17, null
  br i1 %.not, label %._crit_edge, label %.lr.ph, !llvm.loop !44

._crit_edge:                                      ; preds = %pkcs7_free_signer_info.exit19, %pkcs7_free_signer_info.exit
  store ptr null, ptr %4, align 8, !tbaa !10
  br label %22

22:                                               ; preds = %1, %3, %._crit_edge
  ret void
}